; Function Attrs: nounwind uwtable
define internal ptr @_testinternalcapi_compiler_cleandoc(ptr readnone captures(none) %0, ptr noundef %1, i64 noundef %2, ptr noundef %3) #0 {
  %5 = alloca [1 x ptr], align 8
  call void @llvm.lifetime.start.p0(i64 8, ptr nonnull %5) #11
  %6 = icmp eq ptr %3, null
  %7 = icmp eq i64 %2, 1
  %or.cond3 = and i1 %7, %6
  %8 = icmp ne ptr %1, null
  %or.cond5 = and i1 %8, %or.cond3
  br i1 %or.cond5, label %.thread, label %9

9:                                                ; preds = %4
  %10 = call ptr @_PyArg_UnpackKeywords(ptr noundef %1, i64 noundef %2, ptr noundef null, ptr noundef %3, ptr noundef nonnull @_testinternalcapi_compiler_cleandoc._parser, i32 noundef 1, i32 noundef 1, i32 noundef 0, i32 noundef 0, ptr noundef nonnull %5) #11
  %.not = icmp eq ptr %10, null
  br i1 %.not, label %19, label %.thread

.thread:                                          ; preds = %4, %9
  %11 = phi ptr [ %10, %9 ], [ %1, %4 ]
  %12 = load ptr, ptr %11, align 8, !tbaa !9
  %13 = getelementptr i8, ptr %12, i64 8
  %.val = load ptr, ptr %13, align 8, !tbaa !46
  %14 = getelementptr i8, ptr %.val, i64 168
  %.val22 = load i64, ptr %14, align 8, !tbaa !49
  %15 = and i64 %.val22, 268435456
  %.not21 = icmp eq i64 %15, 0
  br i1 %.not21, label %16, label %17

16:                                               ; preds = %.thread
  call void @_PyArg_BadArgument(ptr noundef nonnull @.str.17, ptr noundef nonnull @.str.159, ptr noundef nonnull @.str.160, ptr noundef nonnull %12) #11
  br label %19

17:                                               ; preds = %.thread
  %18 = call ptr @_PyCompile_CleanDoc(ptr noundef nonnull %12) #11
  br label %19

19:                                               ; preds = %9, %17, %16
  %.0 = phi ptr [ %18, %17 ], [ null, %16 ], [ null, %9 ]
  call void @llvm.lifetime.end.p0(i64 8, ptr nonnull %5) #11
  ret ptr %.0
}